target datalayout = "e-m:e-p270:32:32-p271:32:32-p272:64:64-i64:64-i128:128-f80:128-n8:16:32:64-S128"
target triple = "x86_64-pc-linux-gnu"

%"class.std::__cxx11::basic_string" = type { %"struct.std::__cxx11::basic_string<char>::_Alloc_hider", i64, %union.anon }
%"struct.std::__cxx11::basic_string<char>::_Alloc_hider" = type { ptr }
%union.anon = type { i64, [8 x i8] }

; Function Attrs: mustprogress nounwind uwtable
define available_externally noundef ptr @_ZNKSt7__cxx1112basic_stringIcSt11char_traitsIcESaIcEE7_M_dataEv(ptr noundef nonnull align 8 dereferenceable(32) %0) #6 align 2 {
  %2 = alloca ptr, align 8
  store ptr %0, ptr %2, align 8, !tbaa !15
  %3 = load ptr, ptr %2, align 8
  %4 = getelementptr inbounds nuw %"class.std::__cxx11::basic_string", ptr %3, i32 0, i32 0
  %5 = getelementptr inbounds nuw %"struct.std::__cxx11::basic_string<char>::_Alloc_hider", ptr %4, i32 0, i32 0
  %6 = load ptr, ptr %5, align 8, !tbaa !1241
  ret ptr %6
}

; Function Attrs: mustprogress nounwind uwtable
define available_externally noundef i64 @_ZNKSt7__cxx1112basic_stringIcSt11char_traitsIcESaIcEE4sizeEv(ptr noundef nonnull align 8 dereferenceable(32) %0) #6 align 2 {
  %2 = alloca ptr, align 8
  store ptr %0, ptr %2, align 8, !tbaa !15
  %3 = load ptr, ptr %2, align 8
  %4 = getelementptr inbounds nuw %"class.std::__cxx11::basic_string", ptr %3, i32 0, i32 1
  %5 = load i64, ptr %4, align 8, !tbaa !112
  ret i64 %5
}

; Function Attrs: mustprogress nounwind uwtable
define available_externally noundef ptr @_ZNKSt7__cxx1112basic_stringIcSt11char_traitsIcESaIcEE5c_strEv(ptr noundef nonnull align 8 dereferenceable(32) %0) #6 align 2 {
  %2 = alloca ptr, align 8
  store ptr %0, ptr %2, align 8, !tbaa !15
  %3 = load ptr, ptr %2, align 8
  %4 = call noundef ptr @_ZNKSt7__cxx1112basic_stringIcSt11char_traitsIcESaIcEE7_M_dataEv(ptr noundef nonnull align 8 dereferenceable(32) %3)
  ret ptr %4
}

; Function Attrs: mustprogress nounwind uwtable
define internal noundef zeroext i1 @_ZN7testing8internalL20PatternMatchesStringERKNSt7__cxx1112basic_stringIcSt11char_traitsIcESaIcEEEPKcSA_(ptr noundef nonnull align 8 dereferenceable(32) %0, ptr noundef %1, ptr noundef %2) #6 {
  %4 = alloca i1, align 1
  %5 = alloca ptr, align 8
  %6 = alloca ptr, align 8
  %7 = alloca ptr, align 8
  %8 = alloca ptr, align 8
  %9 = alloca ptr, align 8
  %10 = alloca ptr, align 8
  %11 = alloca ptr, align 8
  %12 = alloca ptr, align 8
  %13 = alloca i32, align 4
  store ptr %0, ptr %5, align 8, !tbaa !15
  store ptr %1, ptr %6, align 8, !tbaa !8
  store ptr %2, ptr %7, align 8, !tbaa !8
  call void @llvm.lifetime.start.p0(i64 8, ptr %8) #3
  %14 = load ptr, ptr %5, align 8, !tbaa !15
  %15 = call noundef ptr @_ZNKSt7__cxx1112basic_stringIcSt11char_traitsIcESaIcEE5c_strEv(ptr noundef nonnull align 8 dereferenceable(32) %14) #3
  store ptr %15, ptr %8, align 8, !tbaa !8
  call void @llvm.lifetime.start.p0(i64 8, ptr %9) #3
  %16 = load ptr, ptr %8, align 8, !tbaa !8
  store ptr %16, ptr %9, align 8, !tbaa !8
  call void @llvm.lifetime.start.p0(i64 8, ptr %10) #3
  %17 = load ptr, ptr %8, align 8, !tbaa !8
  %18 = load ptr, ptr %5, align 8, !tbaa !15
  %19 = call noundef i64 @_ZNKSt7__cxx1112basic_stringIcSt11char_traitsIcESaIcEE4sizeEv(ptr noundef nonnull align 8 dereferenceable(32) %18) #3
  %20 = getelementptr inbounds nuw i8, ptr %17, i64 %19
  store ptr %20, ptr %10, align 8, !tbaa !8
  call void @llvm.lifetime.start.p0(i64 8, ptr %11) #3
  %21 = load ptr, ptr %6, align 8, !tbaa !8
  store ptr %21, ptr %11, align 8, !tbaa !8
  call void @llvm.lifetime.start.p0(i64 8, ptr %12) #3
  %22 = load ptr, ptr %8, align 8, !tbaa !8
  store ptr %22, ptr %12, align 8, !tbaa !8
  br label %23

23:                                               ; preds = %84, %69, %63, %53, %3
  %24 = load ptr, ptr %6, align 8, !tbaa !8
  %25 = load ptr, ptr %7, align 8, !tbaa !8
  %26 = icmp ult ptr %24, %25
  br i1 %26, label %31, label %27

27:                                               ; preds = %23
  %28 = load ptr, ptr %8, align 8, !tbaa !8
  %29 = load ptr, ptr %10, align 8, !tbaa !8
  %30 = icmp ult ptr %28, %29
  br label %31

31:                                               ; preds = %27, %23
  %32 = phi i1 [ true, %23 ], [ %30, %27 ]
  br i1 %32, label %33, label %88

33:                                               ; preds = %31
  %34 = load ptr, ptr %6, align 8, !tbaa !8
  %35 = load ptr, ptr %7, align 8, !tbaa !8
  %36 = icmp ult ptr %34, %35
  br i1 %36, label %37, label %76

37:                                               ; preds = %33
  %38 = load ptr, ptr %6, align 8, !tbaa !8
  %39 = load i8, ptr %38, align 1, !tbaa !108
  %40 = sext i8 %39 to i32
  switch i32 %40, label %41 [
    i32 63, label %59
    i32 42, label %69
  ]

41:                                               ; preds = %37
  %42 = load ptr, ptr %8, align 8, !tbaa !8
  %43 = load ptr, ptr %10, align 8, !tbaa !8
  %44 = icmp ult ptr %42, %43
  br i1 %44, label %45, label %58

45:                                               ; preds = %41
  %46 = load ptr, ptr %8, align 8, !tbaa !8
  %47 = load i8, ptr %46, align 1, !tbaa !108
  %48 = sext i8 %47 to i32
  %49 = load ptr, ptr %6, align 8, !tbaa !8
  %50 = load i8, ptr %49, align 1, !tbaa !108
  %51 = sext i8 %50 to i32
  %52 = icmp eq i32 %48, %51
  br i1 %52, label %53, label %58

53:                                               ; preds = %45
  %54 = load ptr, ptr %6, align 8, !tbaa !8
  %55 = getelementptr inbounds nuw i8, ptr %54, i32 1
  store ptr %55, ptr %6, align 8, !tbaa !8
  %56 = load ptr, ptr %8, align 8, !tbaa !8
  %57 = getelementptr inbounds nuw i8, ptr %56, i32 1
  store ptr %57, ptr %8, align 8, !tbaa !8
  br label %23, !llvm.loop !111

58:                                               ; preds = %45, %41
  br label %75

59:                                               ; preds = %37
  %60 = load ptr, ptr %8, align 8, !tbaa !8
  %61 = load ptr, ptr %10, align 8, !tbaa !8
  %62 = icmp ult ptr %60, %61
  br i1 %62, label %63, label %68

63:                                               ; preds = %59
  %64 = load ptr, ptr %6, align 8, !tbaa !8
  %65 = getelementptr inbounds nuw i8, ptr %64, i32 1
  store ptr %65, ptr %6, align 8, !tbaa !8
  %66 = load ptr, ptr %8, align 8, !tbaa !8
  %67 = getelementptr inbounds nuw i8, ptr %66, i32 1
  store ptr %67, ptr %8, align 8, !tbaa !8
  br label %23, !llvm.loop !111

68:                                               ; preds = %59
  br label %75

69:                                               ; preds = %37
  %70 = load ptr, ptr %6, align 8, !tbaa !8
  store ptr %70, ptr %11, align 8, !tbaa !8
  %71 = load ptr, ptr %8, align 8, !tbaa !8
  %72 = getelementptr inbounds i8, ptr %71, i64 1
  store ptr %72, ptr %12, align 8, !tbaa !8
  %73 = load ptr, ptr %6, align 8, !tbaa !8
  %74 = getelementptr inbounds nuw i8, ptr %73, i32 1
  store ptr %74, ptr %6, align 8, !tbaa !8
  br label %23, !llvm.loop !111

75:                                               ; preds = %68, %58
  br label %76

76:                                               ; preds = %75, %33
  %77 = load ptr, ptr %9, align 8, !tbaa !8
  %78 = load ptr, ptr %12, align 8, !tbaa !8
  %79 = icmp ult ptr %77, %78
  br i1 %79, label %80, label %87

80:                                               ; preds = %76
  %81 = load ptr, ptr %12, align 8, !tbaa !8
  %82 = load ptr, ptr %10, align 8, !tbaa !8
  %83 = icmp ule ptr %81, %82
  br i1 %83, label %84, label %87

84:                                               ; preds = %80
  %85 = load ptr, ptr %11, align 8, !tbaa !8
  store ptr %85, ptr %6, align 8, !tbaa !8
  %86 = load ptr, ptr %12, align 8, !tbaa !8
  store ptr %86, ptr %8, align 8, !tbaa !8
  br label %23, !llvm.loop !111

87:                                               ; preds = %80, %76
  store i1 false, ptr %4, align 1
  store i32 1, ptr %13, align 4
  br label %89

88:                                               ; preds = %31
  store i1 true, ptr %4, align 1
  store i32 1, ptr %13, align 4
  br label %89

89:                                               ; preds = %88, %87
  call void @llvm.lifetime.end.p0(i64 8, ptr %12) #3
  call void @llvm.lifetime.end.p0(i64 8, ptr %11) #3
  call void @llvm.lifetime.end.p0(i64 8, ptr %10) #3
  call void @llvm.lifetime.end.p0(i64 8, ptr %9) #3
  call void @llvm.lifetime.end.p0(i64 8, ptr %8) #3
  %90 = load i1, ptr %4, align 1
  ret i1 %90
}

; Function Attrs: mustprogress uwtable
define dso_local noundef zeroext i1 @_ZN7testing8internal15UnitTestOptions13MatchesFilterERKNSt7__cxx1112basic_stringIcSt11char_traitsIcESaIcEEEPKc(ptr noundef nonnull align 8 dereferenceable(32) %0, ptr noundef %1) #4 align 2 {
  %3 = alloca i1, align 1
  %4 = alloca ptr, align 8
  %5 = alloca ptr, align 8
  %6 = alloca ptr, align 8
  %7 = alloca ptr, align 8
  %8 = alloca ptr, align 8
  %9 = alloca i32, align 4
  store ptr %0, ptr %4, align 8, !tbaa !15
  store ptr %1, ptr %5, align 8, !tbaa !8
  call void @llvm.lifetime.start.p0(i64 8, ptr %6) #3
  %10 = load ptr, ptr %5, align 8, !tbaa !8
  store ptr %10, ptr %6, align 8, !tbaa !8
  br label %11

11:                                               ; preds = %40, %2
  br label %12

12:                                               ; preds = %11
  call void @llvm.lifetime.start.p0(i64 8, ptr %7) #3
  %13 = load ptr, ptr %6, align 8, !tbaa !8
  %14 = call noundef ptr @strchr(ptr noundef %13, i32 noundef 58) #24
  store ptr %14, ptr %7, align 8, !tbaa !8
  call void @llvm.lifetime.start.p0(i64 8, ptr %8) #3
  %15 = load ptr, ptr %7, align 8, !tbaa !8
  %16 = icmp ne ptr %15, null
  br i1 %16, label %17, label %19

17:                                               ; preds = %12
  %18 = load ptr, ptr %7, align 8, !tbaa !8
  br label %24

19:                                               ; preds = %12
  %20 = load ptr, ptr %6, align 8, !tbaa !8
  %21 = load ptr, ptr %6, align 8, !tbaa !8
  %22 = call i64 @strlen(ptr noundef %21) #24
  %23 = getelementptr inbounds nuw i8, ptr %20, i64 %22
  br label %24

24:                                               ; preds = %19, %17
  %25 = phi ptr [ %18, %17 ], [ %23, %19 ]
  store ptr %25, ptr %8, align 8, !tbaa !8
  %26 = load ptr, ptr %4, align 8, !tbaa !15
  %27 = load ptr, ptr %6, align 8, !tbaa !8
  %28 = load ptr, ptr %8, align 8, !tbaa !8
  %29 = call noundef zeroext i1 @_ZN7testing8internalL20PatternMatchesStringERKNSt7__cxx1112basic_stringIcSt11char_traitsIcESaIcEEEPKcSA_(ptr noundef nonnull align 8 dereferenceable(32) %26, ptr noundef %27, ptr noundef %28)
  br i1 %29, label %30, label %31

30:                                               ; preds = %24
  store i32 3, ptr %9, align 4
  br label %38

31:                                               ; preds = %24
  %32 = load ptr, ptr %7, align 8, !tbaa !8
  %33 = icmp eq ptr %32, null
  br i1 %33, label %34, label %35

34:                                               ; preds = %31
  store i1 false, ptr %3, align 1
  store i32 1, ptr %9, align 4
  br label %38

35:                                               ; preds = %31
  %36 = load ptr, ptr %7, align 8, !tbaa !8
  %37 = getelementptr inbounds i8, ptr %36, i64 1
  store ptr %37, ptr %6, align 8, !tbaa !8
  store i32 0, ptr %9, align 4
  br label %38

38:                                               ; preds = %35, %34, %30
  call void @llvm.lifetime.end.p0(i64 8, ptr %8) #3
  call void @llvm.lifetime.end.p0(i64 8, ptr %7) #3
  %39 = load i32, ptr %9, align 4
  switch i32 %39, label %42 [
    i32 0, label %40
    i32 3, label %41
  ]

40:                                               ; preds = %38
  br label %11, !llvm.loop !110

41:                                               ; preds = %38
  store i1 true, ptr %3, align 1
  store i32 1, ptr %9, align 4
  br label %42

42:                                               ; preds = %41, %38
  call void @llvm.lifetime.end.p0(i64 8, ptr %6) #3
  %43 = load i1, ptr %3, align 1
  ret i1 %43
}