; Function Attrs: mustprogress nofree nounwind willreturn memory(read, inaccessiblemem: none) uwtable
define dso_local noundef zeroext i1 @_ZN7testing8internal15UnitTestOptions13MatchesFilterERKNSt7__cxx1112basic_stringIcSt11char_traitsIcESaIcEEEPKc(ptr noundef nonnull readonly align 8 captures(none) dereferenceable(32) %0, ptr noundef readonly %1) local_unnamed_addr #14 align 2 {
  %.val = load ptr, ptr %0, align 8, !tbaa !4
  %3 = getelementptr inbounds nuw i8, ptr %0, i64 8
  %.val18 = load i64, ptr %3, align 8, !tbaa !12
  %.val18.fr = freeze i64 %.val18
  %4 = getelementptr inbounds nuw i8, ptr %.val, i64 %.val18.fr
  %5 = icmp eq i64 %.val18.fr, 0
  br i1 %5, label %.split, label %.split.us

.split.us:                                        ; preds = %2, %33
  %.013.us = phi ptr [ %34, %33 ], [ %1, %2 ]
  %6 = tail call noundef ptr @strchr(ptr noundef nonnull dereferenceable(1) %.013.us, i32 noundef 58) #63
  %.not.us = icmp eq ptr %6, null
  br i1 %.not.us, label %7, label %.lr.ph.i.preheader.us

7:                                                ; preds = %.split.us
  %8 = tail call i64 @strlen(ptr noundef nonnull dereferenceable(1) %.013.us) #63
  %9 = getelementptr inbounds nuw i8, ptr %.013.us, i64 %8
  br label %.lr.ph.i.preheader.us

.lr.ph.i.preheader.us:                            ; preds = %7, %.split.us
  %10 = phi ptr [ %9, %7 ], [ %6, %.split.us ]
  %11 = icmp uge ptr %.013.us, %10
  br label %.lr.ph.i.us

.lr.ph.i.us:                                      ; preds = %.lr.ph.i.preheader.us, %.outer.backedge.i.us
  %12 = phi i1 [ %32, %.outer.backedge.i.us ], [ %11, %.lr.ph.i.preheader.us ]
  %13 = phi i1 [ %31, %.outer.backedge.i.us ], [ false, %.lr.ph.i.preheader.us ]
  %.0.ph59.i.us = phi ptr [ %.014.i.us, %.outer.backedge.i.us ], [ %.val, %.lr.ph.i.preheader.us ]
  %.033.ph58.i.us = phi ptr [ %.03319.i.us, %.outer.backedge.i.us ], [ %.013.us, %.lr.ph.i.preheader.us ]
  %.035.ph57.i.us = phi ptr [ %.035.ph.be.i.us, %.outer.backedge.i.us ], [ %.013.us, %.lr.ph.i.preheader.us ]
  %.036.ph56.i.us = phi ptr [ %.036.ph.be.i.us, %.outer.backedge.i.us ], [ %.val, %.lr.ph.i.preheader.us ]
  %14 = getelementptr inbounds nuw i8, ptr %.036.ph56.i.us, i64 1
  %.fr.i.us = freeze i1 %13
  br i1 %.fr.i.us, label %.lr.ph.split.i.us, label %.lr.ph.split.us.i.us

.lr.ph.split.us.i.us:                             ; preds = %.lr.ph.i.us
  br i1 %12, label %.loopexit1.i.us, label %.lr.ph51.i.us

.lr.ph51.i.us:                                    ; preds = %.lr.ph.split.us.i.us, %16
  %.03527.us50.i.us = phi ptr [ %17, %16 ], [ %.035.ph57.i.us, %.lr.ph.split.us.i.us ]
  %.03328.us49.i.us = phi ptr [ %.03527.us50.i.us, %16 ], [ %.033.ph58.i.us, %.lr.ph.split.us.i.us ]
  %.029.us48.i.us = phi ptr [ %14, %16 ], [ %.0.ph59.i.us, %.lr.ph.split.us.i.us ]
  %15 = load i8, ptr %.03527.us50.i.us, align 1, !tbaa !13
  switch i8 %15, label %.split.us.i.us [
    i8 63, label %.split41.us.i.us
    i8 42, label %16
  ]

16:                                               ; preds = %.lr.ph51.i.us
  %17 = getelementptr inbounds nuw i8, ptr %.03527.us50.i.us, i64 1
  %.not62.i.us = icmp ult ptr %17, %10
  br i1 %.not62.i.us, label %.lr.ph51.i.us, label %.loopexit1.i.us

.lr.ph.split.i.us:                                ; preds = %.lr.ph.i.us, %21
  %18 = phi i1 [ false, %21 ], [ %12, %.lr.ph.i.us ]
  %.029.i.us = phi ptr [ %14, %21 ], [ %.0.ph59.i.us, %.lr.ph.i.us ]
  %.03328.i.us = phi ptr [ %.03527.i.us, %21 ], [ %.033.ph58.i.us, %.lr.ph.i.us ]
  %.03527.i.us = phi ptr [ %22, %21 ], [ %.035.ph57.i.us, %.lr.ph.i.us ]
  br i1 %18, label %.loopexit1.i.us, label %19

19:                                               ; preds = %.lr.ph.split.i.us
  %20 = load i8, ptr %.03527.i.us, align 1, !tbaa !13
  switch i8 %20, label %.split.us.i.us [
    i8 63, label %.split41.us.i.us
    i8 42, label %21
  ]

21:                                               ; preds = %19
  %22 = getelementptr inbounds nuw i8, ptr %.03527.i.us, i64 1
  %.not63.i.us = icmp ult ptr %22, %10
  br i1 %.not63.i.us, label %.lr.ph.split.i.us, label %.thread29, !llvm.loop !243

.split41.us.i.us:                                 ; preds = %.lr.ph51.i.us, %19
  %.us-phi42.i.us = phi ptr [ %.03527.i.us, %19 ], [ %.03527.us50.i.us, %.lr.ph51.i.us ]
  %.us-phi43.i.us = phi ptr [ %.03328.i.us, %19 ], [ %.03328.us49.i.us, %.lr.ph51.i.us ]
  %.us-phi44.i.us = phi ptr [ %.029.i.us, %19 ], [ %.029.us48.i.us, %.lr.ph51.i.us ]
  br i1 %.fr.i.us, label %.loopexit1.i.us, label %23

23:                                               ; preds = %.split41.us.i.us
  %24 = getelementptr inbounds nuw i8, ptr %.us-phi42.i.us, i64 1
  br label %.outer.backedge.i.us

.split.us.i.us:                                   ; preds = %.lr.ph51.i.us, %19
  %.us-phi34.i.us = phi i8 [ %20, %19 ], [ %15, %.lr.ph51.i.us ]
  %.us-phi35.i.us = phi ptr [ %.03527.i.us, %19 ], [ %.03527.us50.i.us, %.lr.ph51.i.us ]
  %.us-phi36.i.us = phi ptr [ %.03328.i.us, %19 ], [ %.03328.us49.i.us, %.lr.ph51.i.us ]
  %.us-phi37.i.us = phi ptr [ %.029.i.us, %19 ], [ %.029.us48.i.us, %.lr.ph51.i.us ]
  br i1 %.fr.i.us, label %.loopexit1.i.us, label %25

25:                                               ; preds = %.split.us.i.us
  %26 = load i8, ptr %.036.ph56.i.us, align 1, !tbaa !13
  %27 = icmp eq i8 %26, %.us-phi34.i.us
  br i1 %27, label %28, label %.loopexit1.i.us

28:                                               ; preds = %25
  %29 = getelementptr inbounds nuw i8, ptr %.us-phi35.i.us, i64 1
  br label %.outer.backedge.i.us

.loopexit1.i.us:                                  ; preds = %16, %.lr.ph.split.i.us, %25, %.split.us.i.us, %.split41.us.i.us, %.lr.ph.split.us.i.us
  %.03320.i.us = phi ptr [ %.us-phi36.i.us, %25 ], [ %.us-phi36.i.us, %.split.us.i.us ], [ %.us-phi43.i.us, %.split41.us.i.us ], [ %.033.ph58.i.us, %.lr.ph.split.us.i.us ], [ %.03328.i.us, %.lr.ph.split.i.us ], [ %.03527.us50.i.us, %16 ]
  %.015.i.us = phi ptr [ %.us-phi37.i.us, %25 ], [ %.us-phi37.i.us, %.split.us.i.us ], [ %.us-phi44.i.us, %.split41.us.i.us ], [ %.0.ph59.i.us, %.lr.ph.split.us.i.us ], [ %.029.i.us, %.lr.ph.split.i.us ], [ %14, %16 ]
  %30 = icmp uge ptr %.val, %.015.i.us
  %.not.i.us = icmp ugt ptr %.015.i.us, %4
  %or.cond.i.us = select i1 %30, i1 true, i1 %.not.i.us
  br i1 %or.cond.i.us, label %33, label %.outer.backedge.i.us

.outer.backedge.i.us:                             ; preds = %.loopexit1.i.us, %28, %23
  %.03319.i.us = phi ptr [ %.03320.i.us, %.loopexit1.i.us ], [ %.us-phi43.i.us, %23 ], [ %.us-phi36.i.us, %28 ]
  %.014.i.us = phi ptr [ %.015.i.us, %.loopexit1.i.us ], [ %.us-phi44.i.us, %23 ], [ %.us-phi37.i.us, %28 ]
  %.036.ph.be.i.us = phi ptr [ %.015.i.us, %.loopexit1.i.us ], [ %14, %23 ], [ %14, %28 ]
  %.035.ph.be.i.us = phi ptr [ %.03320.i.us, %.loopexit1.i.us ], [ %24, %23 ], [ %29, %28 ]
  %31 = icmp uge ptr %.036.ph.be.i.us, %4
  %32 = icmp uge ptr %.035.ph.be.i.us, %10
  %.not3926.i.us = select i1 %32, i1 %31, i1 false
  br i1 %.not3926.i.us, label %.thread29, label %.lr.ph.i.us, !llvm.loop !243

33:                                               ; preds = %.loopexit1.i.us
  %34 = getelementptr inbounds nuw i8, ptr %6, i64 1
  br i1 %.not.us, label %.thread29, label %.split.us

.split:                                           ; preds = %2, %62
  %.013 = phi ptr [ %63, %62 ], [ %1, %2 ]
  %35 = tail call noundef ptr @strchr(ptr noundef nonnull dereferenceable(1) %.013, i32 noundef 58) #63
  %.not = icmp eq ptr %35, null
  br i1 %.not, label %36, label %39

36:                                               ; preds = %.split
  %37 = tail call i64 @strlen(ptr noundef nonnull dereferenceable(1) %.013) #63
  %38 = getelementptr inbounds nuw i8, ptr %.013, i64 %37
  br label %39

39:                                               ; preds = %.split, %36
  %40 = phi ptr [ %38, %36 ], [ %35, %.split ]
  %.not55.not.not = icmp uge ptr %.013, %40
  br i1 %.not55.not.not, label %.thread29, label %.lr.ph.i

.lr.ph.i:                                         ; preds = %39, %.outer.backedge.i
  %41 = phi i1 [ %56, %.outer.backedge.i ], [ false, %39 ]
  %42 = phi i1 [ %55, %.outer.backedge.i ], [ true, %39 ]
  %.0.ph59.i = phi ptr [ %.014.i, %.outer.backedge.i ], [ %.val, %39 ]
  %.033.ph58.i = phi ptr [ %.03319.i, %.outer.backedge.i ], [ %.013, %39 ]
  %.035.ph57.i = phi ptr [ %.035.ph.be.i, %.outer.backedge.i ], [ %.013, %39 ]
  %.036.ph56.i = phi ptr [ %.036.ph.be.i, %.outer.backedge.i ], [ %.val, %39 ]
  %43 = getelementptr inbounds nuw i8, ptr %.036.ph56.i, i64 1
  %.fr.i = freeze i1 %42
  br i1 %.fr.i, label %.lr.ph.split.i, label %.lr.ph.split.us.i

.lr.ph.split.us.i:                                ; preds = %.lr.ph.i
  br i1 %41, label %.loopexit1.i, label %.lr.ph51.i

.lr.ph51.i:                                       ; preds = %.lr.ph.split.us.i, %45
  %.03527.us50.i = phi ptr [ %46, %45 ], [ %.035.ph57.i, %.lr.ph.split.us.i ]
  %.03328.us49.i = phi ptr [ %.03527.us50.i, %45 ], [ %.033.ph58.i, %.lr.ph.split.us.i ]
  %.029.us48.i = phi ptr [ %43, %45 ], [ %.0.ph59.i, %.lr.ph.split.us.i ]
  %44 = load i8, ptr %.03527.us50.i, align 1, !tbaa !13
  switch i8 %44, label %.split.us.i [
    i8 63, label %.split41.us.i
    i8 42, label %45
  ]

45:                                               ; preds = %.lr.ph51.i
  %46 = getelementptr inbounds nuw i8, ptr %.03527.us50.i, i64 1
  %.not62.i = icmp ult ptr %46, %40
  br i1 %.not62.i, label %.lr.ph51.i, label %.loopexit1.i

.lr.ph.split.i:                                   ; preds = %.lr.ph.i, %59
  %47 = phi i1 [ false, %59 ], [ %41, %.lr.ph.i ]
  %.029.i = phi ptr [ %43, %59 ], [ %.0.ph59.i, %.lr.ph.i ]
  %.03328.i = phi ptr [ %.03527.i, %59 ], [ %.033.ph58.i, %.lr.ph.i ]
  %.03527.i = phi ptr [ %60, %59 ], [ %.035.ph57.i, %.lr.ph.i ]
  br i1 %47, label %.loopexit1.i, label %48

48:                                               ; preds = %.lr.ph.split.i
  %49 = load i8, ptr %.03527.i, align 1, !tbaa !13
  switch i8 %49, label %.split.us.i [
    i8 63, label %.split41.us.i
    i8 42, label %59
  ]

.split.us.i:                                      ; preds = %.lr.ph51.i, %48
  %.us-phi34.i = phi i8 [ %49, %48 ], [ %44, %.lr.ph51.i ]
  %.us-phi35.i = phi ptr [ %.03527.i, %48 ], [ %.03527.us50.i, %.lr.ph51.i ]
  %.us-phi36.i = phi ptr [ %.03328.i, %48 ], [ %.03328.us49.i, %.lr.ph51.i ]
  %.us-phi37.i = phi ptr [ %.029.i, %48 ], [ %.029.us48.i, %.lr.ph51.i ]
  br i1 %.fr.i, label %.loopexit1.i, label %50

50:                                               ; preds = %.split.us.i
  %51 = load i8, ptr %.036.ph56.i, align 1, !tbaa !13
  %52 = icmp eq i8 %51, %.us-phi34.i
  br i1 %52, label %53, label %.loopexit1.i

53:                                               ; preds = %50
  %54 = getelementptr inbounds nuw i8, ptr %.us-phi35.i, i64 1
  br label %.outer.backedge.i

.outer.backedge.i:                                ; preds = %.loopexit1.i, %57, %53
  %.03319.i = phi ptr [ %.03320.i, %.loopexit1.i ], [ %.us-phi43.i, %57 ], [ %.us-phi36.i, %53 ]
  %.014.i = phi ptr [ %.015.i, %.loopexit1.i ], [ %.us-phi44.i, %57 ], [ %.us-phi37.i, %53 ]
  %.036.ph.be.i = phi ptr [ %.015.i, %.loopexit1.i ], [ %43, %57 ], [ %43, %53 ]
  %.035.ph.be.i = phi ptr [ %.03320.i, %.loopexit1.i ], [ %58, %57 ], [ %54, %53 ]
  %55 = icmp uge ptr %.036.ph.be.i, %4
  %56 = icmp uge ptr %.035.ph.be.i, %40
  %.not3926.i = select i1 %56, i1 %55, i1 false
  br i1 %.not3926.i, label %.thread29, label %.lr.ph.i, !llvm.loop !243

.split41.us.i:                                    ; preds = %.lr.ph51.i, %48
  %.us-phi42.i = phi ptr [ %.03527.i, %48 ], [ %.03527.us50.i, %.lr.ph51.i ]
  %.us-phi43.i = phi ptr [ %.03328.i, %48 ], [ %.03328.us49.i, %.lr.ph51.i ]
  %.us-phi44.i = phi ptr [ %.029.i, %48 ], [ %.029.us48.i, %.lr.ph51.i ]
  br i1 %.fr.i, label %.loopexit1.i, label %57

57:                                               ; preds = %.split41.us.i
  %58 = getelementptr inbounds nuw i8, ptr %.us-phi42.i, i64 1
  br label %.outer.backedge.i

59:                                               ; preds = %48
  %60 = getelementptr inbounds nuw i8, ptr %.03527.i, i64 1
  %.not63.i = icmp ult ptr %60, %40
  br i1 %.not63.i, label %.lr.ph.split.i, label %.thread29, !llvm.loop !243

.loopexit1.i:                                     ; preds = %45, %.lr.ph.split.i, %.split41.us.i, %50, %.split.us.i, %.lr.ph.split.us.i
  %.03320.i = phi ptr [ %.us-phi36.i, %50 ], [ %.us-phi36.i, %.split.us.i ], [ %.us-phi43.i, %.split41.us.i ], [ %.033.ph58.i, %.lr.ph.split.us.i ], [ %.03328.i, %.lr.ph.split.i ], [ %.03527.us50.i, %45 ]
  %.015.i = phi ptr [ %.us-phi37.i, %50 ], [ %.us-phi37.i, %.split.us.i ], [ %.us-phi44.i, %.split41.us.i ], [ %.0.ph59.i, %.lr.ph.split.us.i ], [ %.029.i, %.lr.ph.split.i ], [ %43, %45 ]
  %61 = icmp uge ptr %.val, %.015.i
  %.not.i = icmp ugt ptr %.015.i, %4
  %or.cond.i = select i1 %61, i1 true, i1 %.not.i
  br i1 %or.cond.i, label %62, label %.outer.backedge.i

62:                                               ; preds = %.loopexit1.i
  %63 = getelementptr inbounds nuw i8, ptr %35, i64 1
  br i1 %.not, label %.thread29, label %.split

.thread29:                                        ; preds = %33, %.outer.backedge.i.us, %21, %39, %62, %.outer.backedge.i, %59
  %.2 = phi i1 [ true, %59 ], [ true, %.outer.backedge.i ], [ %.not55.not.not, %62 ], [ %.not55.not.not, %39 ], [ true, %21 ], [ true, %.outer.backedge.i.us ], [ false, %33 ]
  ret i1 %.2
}